; Function Attrs: nofree norecurse nosync nounwind sspstrong memory(read, inaccessiblemem: none) uwtable
define dso_local range(i32 0, 2) i32 @rb_bigzero_p(i64 noundef %0) local_unnamed_addr #6 {
  %2 = inttoptr i64 %0 to ptr
  %3 = load i64, ptr %2, align 8, !tbaa !11
  %4 = and i64 %3, 16384
  %.not.i = icmp eq i64 %4, 0
  br i1 %.not.i, label %BIGNUM_LEN.exit, label %BIGNUM_LEN.exit.thread

BIGNUM_LEN.exit:                                  ; preds = %1
  %5 = getelementptr inbounds nuw i8, ptr %2, i64 16
  %6 = load i64, ptr %5, align 8, !tbaa !13
  %7 = icmp eq i64 %6, 0
  br i1 %7, label %bigzero_p.exit, label %BIGNUM_DIGITS.exit

BIGNUM_LEN.exit.thread:                           ; preds = %1
  %8 = and i64 %3, 229376
  %9 = icmp eq i64 %8, 0
  br i1 %9, label %bigzero_p.exit, label %BIGNUM_DIGITS.exit.thread

BIGNUM_DIGITS.exit:                               ; preds = %BIGNUM_LEN.exit
  %10 = getelementptr inbounds nuw i8, ptr %2, i64 24
  %11 = load ptr, ptr %10, align 8, !tbaa !13
  %12 = load i32, ptr %11, align 4, !tbaa !18
  %13 = icmp eq i32 %12, 0
  br i1 %13, label %BIGNUM_LEN.exit8, label %bigzero_p.exit

BIGNUM_DIGITS.exit.thread:                        ; preds = %BIGNUM_LEN.exit.thread
  %14 = getelementptr inbounds nuw i8, ptr %2, i64 16
  %15 = load i32, ptr %14, align 4, !tbaa !18
  %16 = icmp eq i32 %15, 0
  br i1 %16, label %BIGNUM_LEN.exit8.thread, label %bigzero_p.exit

BIGNUM_LEN.exit8:                                 ; preds = %BIGNUM_DIGITS.exit
  %17 = icmp eq i64 %6, 1
  br i1 %17, label %bigzero_p.exit, label %.preheader.i.i.preheader

BIGNUM_LEN.exit8.thread:                          ; preds = %BIGNUM_DIGITS.exit.thread
  %18 = icmp eq i64 %8, 32768
  br i1 %18, label %bigzero_p.exit, label %BIGNUM_LEN.exit.i

BIGNUM_LEN.exit.i:                                ; preds = %BIGNUM_LEN.exit8.thread
  %19 = lshr i64 %3, 15
  %20 = and i64 %19, 7
  %21 = icmp eq i64 %20, 0
  br i1 %21, label %bigzero_p.exit, label %.preheader.i.i.preheader

.preheader.i.i.preheader:                         ; preds = %BIGNUM_LEN.exit8, %BIGNUM_LEN.exit.i
  %.0.i3.i17 = phi i64 [ %20, %BIGNUM_LEN.exit.i ], [ %6, %BIGNUM_LEN.exit8 ]
  %.0.i7.i16 = phi ptr [ %14, %BIGNUM_LEN.exit.i ], [ %11, %BIGNUM_LEN.exit8 ]
  br label %.preheader.i.i

.preheader.i.i:                                   ; preds = %.preheader.i.i.preheader, %25
  %.0.i4.i = phi i64 [ %22, %25 ], [ %.0.i3.i17, %.preheader.i.i.preheader ]
  %22 = add i64 %.0.i4.i, -1
  %23 = getelementptr i32, ptr %.0.i7.i16, i64 %22
  %24 = load i32, ptr %23, align 4, !tbaa !18
  %.not.i5.i = icmp eq i32 %24, 0
  br i1 %.not.i5.i, label %25, label %bigzero_p.exit

25:                                               ; preds = %.preheader.i.i
  %.not7.i.i = icmp eq i64 %22, 0
  br i1 %.not7.i.i, label %bigzero_p.exit, label %.preheader.i.i, !llvm.loop !71

bigzero_p.exit:                                   ; preds = %25, %.preheader.i.i, %BIGNUM_LEN.exit.i, %BIGNUM_LEN.exit8.thread, %BIGNUM_DIGITS.exit.thread, %BIGNUM_LEN.exit.thread, %BIGNUM_DIGITS.exit, %BIGNUM_LEN.exit8, %BIGNUM_LEN.exit
  %26 = phi i32 [ 1, %BIGNUM_LEN.exit ], [ 0, %BIGNUM_DIGITS.exit ], [ 1, %BIGNUM_LEN.exit8 ], [ 1, %BIGNUM_LEN.exit.thread ], [ 0, %BIGNUM_DIGITS.exit.thread ], [ 1, %BIGNUM_LEN.exit8.thread ], [ 1, %BIGNUM_LEN.exit.i ], [ 1, %25 ], [ 0, %.preheader.i.i ]
  ret i32 %26
}